; Function Attrs: nounwind sspstrong uwtable
define dso_local noundef zeroext i1 @visit_type_XDbgBlockGraph(ptr noundef %v, ptr noundef %name, ptr noundef %obj, ptr noundef %errp) local_unnamed_addr #0 {
entry:
  %call = tail call zeroext i1 @visit_start_struct(ptr noundef %v, ptr noundef %name, ptr noundef %obj, i64 noundef 16, ptr noundef %errp) #5
  br i1 %call, label %if.end, label %return

if.end:                                           ; preds = %entry
  %0 = load ptr, ptr %obj, align 8
  %tobool.not = icmp eq ptr %0, null
  br i1 %tobool.not, label %if.then1, label %if.end5

if.then1:                                         ; preds = %if.end
  %call2 = tail call zeroext i1 @visit_is_dealloc(ptr noundef %v) #5
  br i1 %call2, label %out_obj.thread17, label %if.else

out_obj.thread17:                                 ; preds = %if.then1
  tail call void @visit_end_struct(ptr noundef %v, ptr noundef nonnull %obj) #5
  br label %return

if.else:                                          ; preds = %if.then1
  tail call void @__assert_fail(ptr noundef nonnull @.str.8, ptr noundef nonnull @.str.9, i32 noundef 3211, ptr noundef nonnull @__PRETTY_FUNCTION__.visit_type_XDbgBlockGraph) #6
  unreachable

if.end5:                                          ; preds = %if.end
  %call.i = tail call zeroext i1 @visit_type_XDbgBlockGraphNodeList(ptr noundef %v, ptr noundef nonnull @.str.216, ptr noundef nonnull %0, ptr noundef %errp)
  br i1 %call.i, label %visit_type_XDbgBlockGraph_members.exit, label %out_obj.thread

visit_type_XDbgBlockGraph_members.exit:           ; preds = %if.end5
  %edges.i = getelementptr inbounds nuw i8, ptr %0, i64 8
  %call1.i = tail call zeroext i1 @visit_type_XDbgBlockGraphEdgeList(ptr noundef %v, ptr noundef nonnull @.str.217, ptr noundef nonnull %edges.i, ptr noundef %errp)
  br i1 %call1.i, label %out_obj, label %out_obj.thread

out_obj.thread:                                   ; preds = %visit_type_XDbgBlockGraph_members.exit, %if.end5
  tail call void @visit_end_struct(ptr noundef %v, ptr noundef nonnull %obj) #5
  br label %land.lhs.true

out_obj:                                          ; preds = %visit_type_XDbgBlockGraph_members.exit
  %call9 = tail call zeroext i1 @visit_check_struct(ptr noundef %v, ptr noundef %errp) #5
  tail call void @visit_end_struct(ptr noundef %v, ptr noundef nonnull %obj) #5
  br i1 %call9, label %return, label %land.lhs.true

land.lhs.true:                                    ; preds = %out_obj.thread, %out_obj
  %call11 = tail call zeroext i1 @visit_is_input(ptr noundef %v) #5
  br i1 %call11, label %if.then12, label %return

if.then12:                                        ; preds = %land.lhs.true
  %1 = load ptr, ptr %obj, align 8
  tail call void @qapi_free_XDbgBlockGraph(ptr noundef %1) #5
  store ptr null, ptr %obj, align 8
  br label %return

return:                                           ; preds = %out_obj.thread17, %out_obj, %land.lhs.true, %if.then12, %entry
  %retval.0 = phi i1 [ false, %entry ], [ false, %if.then12 ], [ false, %land.lhs.true ], [ true, %out_obj ], [ true, %out_obj.thread17 ]
  ret i1 %retval.0
}